; Function Attrs: mustprogress nofree nounwind willreturn memory(write, argmem: readwrite) uwtable
define noundef double @_ZNK8QuantLib15COSHestonEngine2muEd(ptr nocapture noundef nonnull readonly align 8 dereferenceable(408) %this, double noundef %t) local_unnamed_addr #12 align 2 {
entry:
  %theta_.i = getelementptr inbounds nuw i8, ptr %this, i64 376
  %0 = load double, ptr %theta_.i, align 8, !tbaa !76
  %fneg.i = fneg double %0
  %kappa_.i = getelementptr inbounds nuw i8, ptr %this, i64 368
  %1 = load double, ptr %kappa_.i, align 8, !tbaa !75
  %mul.i = fmul double %t, %1
  %call.i = tail call double @exp(double noundef %mul.i) #29, !tbaa !108
  %neg.i = fneg double %mul.i
  %2 = tail call double @llvm.fmuladd.f64(double %neg.i, double %0, double %0)
  %v0_.i = getelementptr inbounds nuw i8, ptr %this, i64 400
  %3 = load double, ptr %v0_.i, align 8, !tbaa !79
  %sub.i = fsub double %2, %3
  %4 = tail call double @llvm.fmuladd.f64(double %call.i, double %sub.i, double %fneg.i)
  %add.i = fadd double %3, %4
  %call11.i = tail call double @exp(double noundef %mul.i) #29, !tbaa !108
  %mul12.i = fmul double %call11.i, 2.000000e+00
  %mul14.i = fmul double %1, %mul12.i
  %div.i = fdiv double %add.i, %mul14.i
  ret double %div.i
}